(dp0
S'SP'
p1
(L1742L
L32L
L33L
L34L
tp2
sS'CO'
p3
(L35L
L36L
L37L
L38L
L39L
L40L
L41L
L42L
L43L
L44L
L45L
L46L
L47L
L49L
L48L
tp4
sS'CL'
p5
(L182L
L250L
L1154L
L299L
L360L
L426L
L467L
L520L
L570L
L645L
L665L
L723L
L766L
L804L
L836L
L851L
L852L
L900L
L971L
L1016L
L1040L
L1111L
L1135L
L1143L
tp6
sS'JW'
p7
(L1722L
L1723L
L1724L
L1725L
L1726L
L1727L
L1728L
L1729L
L1730L
L1732L
L1731L
L1733L
L1734L
L1735L
L1736L
L1737L
L1739L
L1740L
L1741L
L1738L
tp8
sS'MT'
p9
(L140L
L141L
L229L
L890L
tp10
sS'RP'
p11
(L1743L
L25L
L26L
L27L
L28L
L1930L
L29L
tp12
sS'JB'
p13
(L50L
L51L
L52L
L53L
L54L
L55L
L56L
L1924L
L57L
L58L
L60L
L59L
L61L
L63L
L64L
L65L
L66L
L68L
L69L
L70L
L67L
tp14
s.